target datalayout = "e-m:e-p270:32:32-p271:32:32-p272:64:64-i64:64-i128:128-f80:128-n8:16:32:64-S128"
target triple = "x86_64-pc-linux-gnu"

; Function Attrs: nounwind uwtable
define internal i32 @format_octal(i64 noundef %0, ptr noundef %1, i32 noundef %2) #0 {
  %4 = alloca i32, align 4
  %5 = alloca i64, align 8
  %6 = alloca ptr, align 8
  %7 = alloca i32, align 4
  %8 = alloca i32, align 4
  %9 = alloca ptr, align 8
  %10 = alloca i32, align 4
  store i64 %0, ptr %5, align 8, !tbaa !37
  store ptr %1, ptr %6, align 8, !tbaa !36
  store i32 %2, ptr %7, align 4, !tbaa !11
  call void @llvm.lifetime.start.p0(i64 4, ptr %8) #9
  call void @llvm.lifetime.start.p0(i64 8, ptr %9) #9
  %11 = load i32, ptr %7, align 4, !tbaa !11
  store i32 %11, ptr %8, align 4, !tbaa !11
  %12 = load ptr, ptr %6, align 8, !tbaa !36
  store ptr %12, ptr %9, align 8, !tbaa !36
  %13 = load i64, ptr %5, align 8, !tbaa !37
  %14 = icmp slt i64 %13, 0
  br i1 %14, label %15, label %24

15:                                               ; preds = %3
  br label %16

16:                                               ; preds = %20, %15
  %17 = load i32, ptr %8, align 4, !tbaa !11
  %18 = add nsw i32 %17, -1
  store i32 %18, ptr %8, align 4, !tbaa !11
  %19 = icmp sgt i32 %17, 0
  br i1 %19, label %20, label %23

20:                                               ; preds = %16
  %21 = load ptr, ptr %6, align 8, !tbaa !36
  %22 = getelementptr inbounds nuw i8, ptr %21, i32 1
  store ptr %22, ptr %6, align 8, !tbaa !36
  store i8 48, ptr %21, align 1, !tbaa !38
  br label %16, !llvm.loop !51

23:                                               ; preds = %16
  store i32 -1, ptr %4, align 4
  store i32 1, ptr %10, align 4
  br label %82

24:                                               ; preds = %3
  %25 = load i32, ptr %7, align 4, !tbaa !11
  %26 = load ptr, ptr %6, align 8, !tbaa !36
  %27 = sext i32 %25 to i64
  %28 = getelementptr inbounds i8, ptr %26, i64 %27
  store ptr %28, ptr %6, align 8, !tbaa !36
  br label %29

29:                                               ; preds = %45, %24
  %30 = load i64, ptr %5, align 8, !tbaa !37
  %31 = and i64 %30, 7
  %32 = add nsw i64 48, %31
  %33 = trunc i64 %32 to i8
  %34 = load ptr, ptr %6, align 8, !tbaa !36
  %35 = getelementptr inbounds i8, ptr %34, i32 -1
  store ptr %35, ptr %6, align 8, !tbaa !36
  store i8 %33, ptr %35, align 1, !tbaa !38
  %36 = load i64, ptr %5, align 8, !tbaa !37
  %37 = ashr i64 %36, 3
  store i64 %37, ptr %5, align 8, !tbaa !37
  br label %38

38:                                               ; preds = %29
  %39 = load i32, ptr %7, align 4, !tbaa !11
  %40 = add nsw i32 %39, -1
  store i32 %40, ptr %7, align 4, !tbaa !11
  %41 = icmp sgt i32 %40, 0
  br i1 %41, label %42, label %45

42:                                               ; preds = %38
  %43 = load i64, ptr %5, align 8, !tbaa !37
  %44 = icmp sgt i64 %43, 0
  br label %45

45:                                               ; preds = %42, %38
  %46 = phi i1 [ false, %38 ], [ %44, %42 ]
  br i1 %46, label %29, label %47, !llvm.loop !52

47:                                               ; preds = %45
  %48 = load i64, ptr %5, align 8, !tbaa !37
  %49 = icmp eq i64 %48, 0
  br i1 %49, label %50, label %73

50:                                               ; preds = %47
  %51 = load ptr, ptr %9, align 8, !tbaa !36
  %52 = load ptr, ptr %6, align 8, !tbaa !36
  %53 = load i32, ptr %8, align 4, !tbaa !11
  %54 = load i32, ptr %7, align 4, !tbaa !11
  %55 = sub nsw i32 %53, %54
  %56 = sext i32 %55 to i64
  call void @llvm.memmove.p0.p0.i64(ptr align 1 %51, ptr align 1 %52, i64 %56, i1 false)
  %57 = load ptr, ptr %9, align 8, !tbaa !36
  %58 = load i32, ptr %8, align 4, !tbaa !11
  %59 = sext i32 %58 to i64
  %60 = getelementptr inbounds i8, ptr %57, i64 %59
  %61 = load i32, ptr %7, align 4, !tbaa !11
  %62 = sext i32 %61 to i64
  %63 = sub i64 0, %62
  %64 = getelementptr inbounds i8, ptr %60, i64 %63
  store ptr %64, ptr %6, align 8, !tbaa !36
  br label %65

65:                                               ; preds = %69, %50
  %66 = load i32, ptr %7, align 4, !tbaa !11
  %67 = add nsw i32 %66, -1
  store i32 %67, ptr %7, align 4, !tbaa !11
  %68 = icmp sgt i32 %66, 0
  br i1 %68, label %69, label %72

69:                                               ; preds = %65
  %70 = load ptr, ptr %6, align 8, !tbaa !36
  %71 = getelementptr inbounds nuw i8, ptr %70, i32 1
  store ptr %71, ptr %6, align 8, !tbaa !36
  store i8 32, ptr %70, align 1, !tbaa !38
  br label %65, !llvm.loop !53

72:                                               ; preds = %65
  store i32 0, ptr %4, align 4
  store i32 1, ptr %10, align 4
  br label %82

73:                                               ; preds = %47
  br label %74

74:                                               ; preds = %78, %73
  %75 = load i32, ptr %8, align 4, !tbaa !11
  %76 = add nsw i32 %75, -1
  store i32 %76, ptr %8, align 4, !tbaa !11
  %77 = icmp sgt i32 %75, 0
  br i1 %77, label %78, label %81

78:                                               ; preds = %74
  %79 = load ptr, ptr %6, align 8, !tbaa !36
  %80 = getelementptr inbounds nuw i8, ptr %79, i32 1
  store ptr %80, ptr %6, align 8, !tbaa !36
  store i8 55, ptr %79, align 1, !tbaa !38
  br label %74, !llvm.loop !54

81:                                               ; preds = %74
  store i32 -1, ptr %4, align 4
  store i32 1, ptr %10, align 4
  br label %82

82:                                               ; preds = %81, %72, %23
  call void @llvm.lifetime.end.p0(i64 8, ptr %9) #9
  call void @llvm.lifetime.end.p0(i64 4, ptr %8) #9
  %83 = load i32, ptr %4, align 4
  ret i32 %83
}