; Function Attrs: nofree norecurse nosync nounwind memory(argmem: readwrite) uwtable
define internal fastcc range(i32 -1, 1) i32 @format_octal(i64 noundef range(i64 0, 4294967296) %0, ptr noundef nonnull captures(none) %1) unnamed_addr #10 {
  %3 = getelementptr i8, ptr %1, i64 8
  br label %4

4:                                                ; preds = %4, %2
  %.029 = phi i64 [ %0, %2 ], [ %9, %4 ]
  %.128 = phi ptr [ %3, %2 ], [ %8, %4 ]
  %.025 = phi i32 [ 8, %2 ], [ %10, %4 ]
  %5 = trunc i64 %.029 to i8
  %6 = and i8 %5, 7
  %7 = or disjoint i8 %6, 48
  %8 = getelementptr inbounds i8, ptr %.128, i64 -1
  store i8 %7, ptr %8, align 1, !tbaa !27
  %9 = lshr i64 %.029, 3
  %10 = add nsw i32 %.025, -1
  %11 = icmp samesign ugt i32 %.025, 1
  %12 = icmp samesign ugt i64 %.029, 7
  %13 = select i1 %11, i1 %12, i1 false
  br i1 %13, label %4, label %14, !llvm.loop !36

14:                                               ; preds = %4
  %15 = icmp samesign ult i64 %.029, 8
  br i1 %15, label %16, label %.preheader.preheader

.preheader.preheader:                             ; preds = %14
  store i64 3978709506094217015, ptr %8, align 1
  br label %.loopexit

16:                                               ; preds = %14
  %17 = sub nsw i32 9, %.025
  %18 = sext i32 %17 to i64
  tail call void @llvm.memmove.p0.p0.i64(ptr nonnull align 1 %1, ptr nonnull align 1 %8, i64 %18, i1 false)
  %19 = icmp sgt i32 %.025, 1
  br i1 %19, label %.lr.ph.preheader, label %.loopexit

.lr.ph.preheader:                                 ; preds = %16
  %20 = zext nneg i32 %10 to i64
  %21 = sub nsw i64 0, %20
  %22 = getelementptr i8, ptr %3, i64 %21
  tail call void @llvm.memset.p0.i64(ptr align 1 %22, i8 32, i64 %20, i1 false), !tbaa !27
  br label %.loopexit

.loopexit:                                        ; preds = %.preheader.preheader, %.lr.ph.preheader, %16
  %.0 = phi i32 [ 0, %16 ], [ 0, %.lr.ph.preheader ], [ -1, %.preheader.preheader ]
  ret i32 %.0
}